; Function Attrs: nofree norecurse nosync nounwind memory(read, inaccessiblemem: none) uwtable
define range(i32 0, 2) i32 @Wlc_ObjHasArithm_rec(ptr noundef readonly captures(none) %0, ptr noundef readonly captures(none) %1) local_unnamed_addr #1 {
  %3 = getelementptr i8, ptr %0, i64 640
  br label %tailrecurse

tailrecurse:                                      ; preds = %Wlc_ObjFanin0.exit, %2
  %.tr13 = phi ptr [ %1, %2 ], [ %15, %Wlc_ObjFanin0.exit ]
  %4 = load i16, ptr %.tr13, align 8
  %5 = and i16 %4, 63
  switch i16 %5, label %16 [
    i16 6, label %.loopexit.loopexit
    i16 7, label %6
    i16 15, label %6
    i16 24, label %6
    i16 25, label %6
    i16 43, label %.loopexit
    i16 44, label %.loopexit
    i16 45, label %.loopexit
  ]

6:                                                ; preds = %tailrecurse, %tailrecurse, %tailrecurse, %tailrecurse
  %7 = getelementptr inbounds nuw i8, ptr %.tr13, i64 4
  %8 = load i32, ptr %7, align 4, !tbaa !23
  %9 = icmp ugt i32 %8, 2
  %cond = icmp eq i16 %5, 22
  %or.cond = or i1 %cond, %9
  %10 = getelementptr inbounds nuw i8, ptr %.tr13, i64 16
  br i1 %or.cond, label %Wlc_ObjHasArray.exit.thread.i.i.i, label %Wlc_ObjFanin0.exit

Wlc_ObjHasArray.exit.thread.i.i.i:                ; preds = %6
  %11 = load ptr, ptr %10, align 8, !tbaa !25
  br label %Wlc_ObjFanin0.exit

Wlc_ObjFanin0.exit:                               ; preds = %6, %Wlc_ObjHasArray.exit.thread.i.i.i
  %12 = phi ptr [ %11, %Wlc_ObjHasArray.exit.thread.i.i.i ], [ %10, %6 ]
  %13 = load i32, ptr %12, align 4, !tbaa !20
  %.val.i = load ptr, ptr %3, align 8, !tbaa !11
  %14 = sext i32 %13 to i64
  %15 = getelementptr inbounds %struct.Wlc_Obj_t_, ptr %.val.i, i64 %14
  br label %tailrecurse

16:                                               ; preds = %tailrecurse
  %17 = icmp eq i16 %5, 50
  %18 = zext i1 %17 to i32
  br label %.loopexit

.loopexit.loopexit:                               ; preds = %tailrecurse
  br label %.loopexit

.loopexit:                                        ; preds = %tailrecurse, %tailrecurse, %tailrecurse, %.loopexit.loopexit, %16
  %.0 = phi i32 [ %18, %16 ], [ 0, %.loopexit.loopexit ], [ 1, %tailrecurse ], [ 1, %tailrecurse ], [ 1, %tailrecurse ]
  ret i32 %.0
}